target datalayout = "e-m:e-p270:32:32-p271:32:32-p272:64:64-i64:64-i128:128-f80:128-n8:16:32:64-S128"
target triple = "x86_64-pc-linux-gnu"

%struct._follow_info = type { i32, ptr, ptr, [2 x i32], [2 x i32], [2 x ptr], i32, i32, %struct._address, %struct._address, ptr, i64 }
%struct._address = type { i32, i32, ptr, ptr }
%struct.follow_record_t = type { i8, i32, i32, %struct.nstime_t, ptr }
%struct.nstime_t = type { i64, i32 }
%struct._packet_info = type { ptr, ptr, i32, i32, %struct.nstime_t, %struct.nstime_t, %struct.nstime_t, i8, ptr, ptr, ptr, ptr, %struct._address, %struct._address, %struct._address, %struct._address, %struct._address, %struct._address, i32, ptr, i8, [3 x i8], %struct.anon, i32, i32, i32, i32, ptr, i8, ptr, ptr, i16, i16, i32, i32, i16, i32, i32, ptr, ptr, ptr, i8, i8, i16, i16, i16, i32, i16, i16, ptr, ptr, ptr, ptr, ptr, i32, i32 }
%struct.anon = type { i8, [3 x i8] }
%struct._frame_data = type <{ i32, i32, i32, i32, i32, [4 x i8], i64, ptr, ptr, ptr, i8, i16, [5 x i8], %struct.nstime_t, %struct.nstime_t, i32, i32 }>
%struct._GByteArray = type { ptr, i32 }

; Function Attrs: inlinehint nounwind null_pointer_is_valid sspstrong uwtable
define internal void @clear_address(ptr noundef %0) #11 {
  %2 = alloca ptr, align 8
  store ptr %0, ptr %2, align 8
  %3 = load ptr, ptr %2, align 8
  %4 = getelementptr inbounds nuw %struct._address, ptr %3, i32 0, i32 0
  store i32 0, ptr %4, align 8
  %5 = load ptr, ptr %2, align 8
  %6 = getelementptr inbounds nuw %struct._address, ptr %5, i32 0, i32 1
  store i32 0, ptr %6, align 4
  %7 = load ptr, ptr %2, align 8
  %8 = getelementptr inbounds nuw %struct._address, ptr %7, i32 0, i32 2
  store ptr null, ptr %8, align 8
  %9 = load ptr, ptr %2, align 8
  %10 = getelementptr inbounds nuw %struct._address, ptr %9, i32 0, i32 3
  store ptr null, ptr %10, align 8
  ret void
}

; Function Attrs: inlinehint null_pointer_is_valid sspstrong uwtable
define internal void @alloc_address_wmem(ptr noundef %0, ptr noundef %1, i32 noundef %2, i32 noundef %3, ptr noundef %4) #6 {
  %6 = alloca ptr, align 8
  %7 = alloca ptr, align 8
  %8 = alloca i32, align 4
  %9 = alloca i32, align 4
  %10 = alloca ptr, align 8
  store ptr %0, ptr %6, align 8
  store ptr %1, ptr %7, align 8
  store i32 %2, ptr %8, align 4
  store i32 %3, ptr %9, align 4
  store ptr %4, ptr %10, align 8
  br label %11

11:                                               ; preds = %5
  br label %12

12:                                               ; preds = %11
  %13 = load ptr, ptr %7, align 8
  call void @clear_address(ptr noundef %13)
  %14 = load i32, ptr %8, align 4
  %15 = load ptr, ptr %7, align 8
  %16 = getelementptr inbounds nuw %struct._address, ptr %15, i32 0, i32 0
  store i32 %14, ptr %16, align 8
  %17 = load i32, ptr %9, align 4
  %18 = icmp eq i32 %17, 0
  br i1 %18, label %19, label %22

19:                                               ; preds = %12
  br label %20

20:                                               ; preds = %19
  br label %21

21:                                               ; preds = %20
  br label %39

22:                                               ; preds = %12
  br label %23

23:                                               ; preds = %22
  br label %24

24:                                               ; preds = %23
  br label %25

25:                                               ; preds = %24
  br label %26

26:                                               ; preds = %25
  %27 = load ptr, ptr %6, align 8
  %28 = load ptr, ptr %10, align 8
  %29 = load i32, ptr %9, align 4
  %30 = sext i32 %29 to i64
  %31 = call ptr @wmem_memdup(ptr noundef %27, ptr noundef %28, i64 noundef %30) #20
  %32 = load ptr, ptr %7, align 8
  %33 = getelementptr inbounds nuw %struct._address, ptr %32, i32 0, i32 3
  store ptr %31, ptr %33, align 8
  %34 = load ptr, ptr %7, align 8
  %35 = getelementptr inbounds nuw %struct._address, ptr %34, i32 0, i32 2
  store ptr %31, ptr %35, align 8
  %36 = load i32, ptr %9, align 4
  %37 = load ptr, ptr %7, align 8
  %38 = getelementptr inbounds nuw %struct._address, ptr %37, i32 0, i32 1
  store i32 %36, ptr %38, align 4
  br label %39

39:                                               ; preds = %26, %21
  ret void
}

; Function Attrs: inlinehint null_pointer_is_valid sspstrong uwtable
define internal void @copy_address_wmem(ptr noundef %0, ptr noundef %1, ptr noundef %2) #6 {
  %4 = alloca ptr, align 8
  %5 = alloca ptr, align 8
  %6 = alloca ptr, align 8
  store ptr %0, ptr %4, align 8
  store ptr %1, ptr %5, align 8
  store ptr %2, ptr %6, align 8
  %7 = load ptr, ptr %4, align 8
  %8 = load ptr, ptr %5, align 8
  %9 = load ptr, ptr %6, align 8
  %10 = getelementptr inbounds nuw %struct._address, ptr %9, i32 0, i32 0
  %11 = load i32, ptr %10, align 8
  %12 = load ptr, ptr %6, align 8
  %13 = getelementptr inbounds nuw %struct._address, ptr %12, i32 0, i32 1
  %14 = load i32, ptr %13, align 4
  %15 = load ptr, ptr %6, align 8
  %16 = getelementptr inbounds nuw %struct._address, ptr %15, i32 0, i32 2
  %17 = load ptr, ptr %16, align 8
  call void @alloc_address_wmem(ptr noundef %7, ptr noundef %8, i32 noundef %11, i32 noundef %14, ptr noundef %17)
  ret void
}

; Function Attrs: inlinehint nounwind null_pointer_is_valid sspstrong uwtable
define internal zeroext i1 @addresses_equal(ptr noundef %0, ptr noundef %1) #11 {
  %3 = alloca i1, align 1
  %4 = alloca ptr, align 8
  %5 = alloca ptr, align 8
  store ptr %0, ptr %4, align 8
  store ptr %1, ptr %5, align 8
  %6 = load ptr, ptr %4, align 8
  %7 = getelementptr inbounds nuw %struct._address, ptr %6, i32 0, i32 0
  %8 = load i32, ptr %7, align 8
  %9 = load ptr, ptr %5, align 8
  %10 = getelementptr inbounds nuw %struct._address, ptr %9, i32 0, i32 0
  %11 = load i32, ptr %10, align 8
  %12 = icmp eq i32 %8, %11
  br i1 %12, label %13, label %40

13:                                               ; preds = %2
  %14 = load ptr, ptr %4, align 8
  %15 = getelementptr inbounds nuw %struct._address, ptr %14, i32 0, i32 1
  %16 = load i32, ptr %15, align 4
  %17 = load ptr, ptr %5, align 8
  %18 = getelementptr inbounds nuw %struct._address, ptr %17, i32 0, i32 1
  %19 = load i32, ptr %18, align 4
  %20 = icmp eq i32 %16, %19
  br i1 %20, label %21, label %40

21:                                               ; preds = %13
  %22 = load ptr, ptr %4, align 8
  %23 = getelementptr inbounds nuw %struct._address, ptr %22, i32 0, i32 1
  %24 = load i32, ptr %23, align 4
  %25 = icmp eq i32 %24, 0
  br i1 %25, label %39, label %26

26:                                               ; preds = %21
  %27 = load ptr, ptr %4, align 8
  %28 = getelementptr inbounds nuw %struct._address, ptr %27, i32 0, i32 2
  %29 = load ptr, ptr %28, align 8
  %30 = load ptr, ptr %5, align 8
  %31 = getelementptr inbounds nuw %struct._address, ptr %30, i32 0, i32 2
  %32 = load ptr, ptr %31, align 8
  %33 = load ptr, ptr %4, align 8
  %34 = getelementptr inbounds nuw %struct._address, ptr %33, i32 0, i32 1
  %35 = load i32, ptr %34, align 4
  %36 = sext i32 %35 to i64
  %37 = call i32 @memcmp(ptr noundef %29, ptr noundef %32, i64 noundef %36) #19
  %38 = icmp eq i32 %37, 0
  br i1 %38, label %39, label %40

39:                                               ; preds = %26, %21
  store i1 true, ptr %3, align 1
  br label %41

40:                                               ; preds = %26, %13, %2
  store i1 false, ptr %3, align 1
  br label %41

41:                                               ; preds = %40, %39
  %42 = load i1, ptr %3, align 1
  ret i1 %42
}

; Function Attrs: inlinehint null_pointer_is_valid sspstrong uwtable
define internal void @copy_address(ptr noundef %0, ptr noundef %1) #6 {
  %3 = alloca ptr, align 8
  %4 = alloca ptr, align 8
  store ptr %0, ptr %3, align 8
  store ptr %1, ptr %4, align 8
  %5 = load ptr, ptr %3, align 8
  %6 = load ptr, ptr %4, align 8
  call void @copy_address_wmem(ptr noundef null, ptr noundef %5, ptr noundef %6)
  ret void
}

; Function Attrs: null_pointer_is_valid sspstrong uwtable
define i32 @follow_tvb_tap_listener(ptr noundef %0, ptr noundef %1, ptr noundef %2, ptr noundef %3, i32 noundef %4) #0 {
  %6 = alloca ptr, align 8
  %7 = alloca ptr, align 8
  %8 = alloca ptr, align 8
  %9 = alloca ptr, align 8
  %10 = alloca i32, align 4
  %11 = alloca ptr, align 8
  %12 = alloca ptr, align 8
  %13 = alloca ptr, align 8
  %14 = alloca i64, align 8
  %15 = alloca i64, align 8
  %16 = alloca ptr, align 8
  %17 = alloca ptr, align 8
  store ptr %0, ptr %6, align 8
  store ptr %1, ptr %7, align 8
  store ptr %2, ptr %8, align 8
  store ptr %3, ptr %9, align 8
  store i32 %4, ptr %10, align 4
  call void @llvm.lifetime.start.p0(i64 8, ptr %11) #14
  call void @llvm.lifetime.start.p0(i64 8, ptr %12) #14
  %18 = load ptr, ptr %6, align 8
  store ptr %18, ptr %12, align 8
  call void @llvm.lifetime.start.p0(i64 8, ptr %13) #14
  %19 = load ptr, ptr %9, align 8
  store ptr %19, ptr %13, align 8
  call void @llvm.lifetime.start.p0(i64 8, ptr %14) #14
  store i64 1, ptr %14, align 8
  call void @llvm.lifetime.start.p0(i64 8, ptr %15) #14
  store i64 40, ptr %15, align 8
  call void @llvm.lifetime.start.p0(i64 8, ptr %16) #14
  %20 = load i64, ptr %15, align 8
  %21 = icmp eq i64 %20, 1
  br i1 %21, label %22, label %25

22:                                               ; preds = %5
  %23 = load i64, ptr %14, align 8
  %24 = call noalias ptr @g_malloc(i64 noundef %23) #17
  store ptr %24, ptr %16, align 8
  br label %46

25:                                               ; preds = %5
  %26 = load i64, ptr %14, align 8
  %27 = call i1 @llvm.is.constant.i64(i64 %26)
  br i1 %27, label %28, label %41

28:                                               ; preds = %25
  %29 = load i64, ptr %15, align 8
  %30 = icmp eq i64 %29, 0
  br i1 %30, label %36, label %31

31:                                               ; preds = %28
  %32 = load i64, ptr %14, align 8
  %33 = load i64, ptr %15, align 8
  %34 = udiv i64 -1, %33
  %35 = icmp ule i64 %32, %34
  br i1 %35, label %36, label %41

36:                                               ; preds = %31, %28
  %37 = load i64, ptr %14, align 8
  %38 = load i64, ptr %15, align 8
  %39 = mul i64 %37, %38
  %40 = call noalias ptr @g_malloc(i64 noundef %39) #17
  store ptr %40, ptr %16, align 8
  br label %45

41:                                               ; preds = %31, %25
  %42 = load i64, ptr %14, align 8
  %43 = load i64, ptr %15, align 8
  %44 = call noalias ptr @g_malloc_n(i64 noundef %42, i64 noundef %43) #18
  store ptr %44, ptr %16, align 8
  br label %45

45:                                               ; preds = %41, %36
  br label %46

46:                                               ; preds = %45, %22
  %47 = load ptr, ptr %16, align 8
  store ptr %47, ptr %17, align 8
  call void @llvm.lifetime.end.p0(i64 8, ptr %16) #14
  call void @llvm.lifetime.end.p0(i64 8, ptr %15) #14
  call void @llvm.lifetime.end.p0(i64 8, ptr %14) #14
  %48 = load ptr, ptr %17, align 8
  store ptr %48, ptr %11, align 8
  %49 = load ptr, ptr %13, align 8
  %50 = call i32 @tvb_captured_length(ptr noundef %49)
  %51 = call ptr @g_byte_array_sized_new(i32 noundef %50)
  %52 = load ptr, ptr %11, align 8
  %53 = getelementptr inbounds nuw %struct.follow_record_t, ptr %52, i32 0, i32 4
  store ptr %51, ptr %53, align 8
  %54 = load ptr, ptr %11, align 8
  %55 = getelementptr inbounds nuw %struct.follow_record_t, ptr %54, i32 0, i32 4
  %56 = load ptr, ptr %55, align 8
  %57 = load ptr, ptr %13, align 8
  %58 = call ptr @tvb_get_ptr(ptr noundef %57, i32 noundef 0, i32 noundef -1)
  %59 = load ptr, ptr %13, align 8
  %60 = call i32 @tvb_captured_length(ptr noundef %59)
  %61 = call ptr @g_byte_array_append(ptr noundef %56, ptr noundef %58, i32 noundef %60)
  %62 = load ptr, ptr %11, align 8
  %63 = getelementptr inbounds nuw %struct.follow_record_t, ptr %62, i32 0, i32 4
  store ptr %61, ptr %63, align 8
  %64 = load ptr, ptr %7, align 8
  %65 = getelementptr inbounds nuw %struct._packet_info, ptr %64, i32 0, i32 8
  %66 = load ptr, ptr %65, align 8
  %67 = getelementptr inbounds nuw %struct._frame_data, ptr %66, i32 0, i32 0
  %68 = load i32, ptr %67, align 8
  %69 = load ptr, ptr %11, align 8
  %70 = getelementptr inbounds nuw %struct.follow_record_t, ptr %69, i32 0, i32 1
  store i32 %68, ptr %70, align 4
  %71 = load ptr, ptr %11, align 8
  %72 = getelementptr inbounds nuw %struct.follow_record_t, ptr %71, i32 0, i32 3
  %73 = load ptr, ptr %7, align 8
  %74 = getelementptr inbounds nuw %struct._packet_info, ptr %73, i32 0, i32 8
  %75 = load ptr, ptr %74, align 8
  %76 = getelementptr inbounds nuw %struct._frame_data, ptr %75, i32 0, i32 13
  call void @llvm.memcpy.p0.p0.i64(ptr align 8 %72, ptr align 8 %76, i64 16, i1 false)
  %77 = load ptr, ptr %12, align 8
  %78 = getelementptr inbounds nuw %struct._follow_info, ptr %77, i32 0, i32 6
  %79 = load i32, ptr %78, align 8
  %80 = icmp eq i32 %79, 0
  br i1 %80, label %81, label %100

81:                                               ; preds = %46
  %82 = load ptr, ptr %7, align 8
  %83 = getelementptr inbounds nuw %struct._packet_info, ptr %82, i32 0, i32 24
  %84 = load i32, ptr %83, align 4
  %85 = load ptr, ptr %12, align 8
  %86 = getelementptr inbounds nuw %struct._follow_info, ptr %85, i32 0, i32 6
  store i32 %84, ptr %86, align 8
  %87 = load ptr, ptr %12, align 8
  %88 = getelementptr inbounds nuw %struct._follow_info, ptr %87, i32 0, i32 8
  %89 = load ptr, ptr %7, align 8
  %90 = getelementptr inbounds nuw %struct._packet_info, ptr %89, i32 0, i32 16
  call void @copy_address(ptr noundef %88, ptr noundef %90)
  %91 = load ptr, ptr %7, align 8
  %92 = getelementptr inbounds nuw %struct._packet_info, ptr %91, i32 0, i32 25
  %93 = load i32, ptr %92, align 8
  %94 = load ptr, ptr %12, align 8
  %95 = getelementptr inbounds nuw %struct._follow_info, ptr %94, i32 0, i32 7
  store i32 %93, ptr %95, align 4
  %96 = load ptr, ptr %12, align 8
  %97 = getelementptr inbounds nuw %struct._follow_info, ptr %96, i32 0, i32 9
  %98 = load ptr, ptr %7, align 8
  %99 = getelementptr inbounds nuw %struct._packet_info, ptr %98, i32 0, i32 17
  call void @copy_address(ptr noundef %97, ptr noundef %99)
  br label %100

100:                                              ; preds = %81, %46
  %101 = load ptr, ptr %12, align 8
  %102 = getelementptr inbounds nuw %struct._follow_info, ptr %101, i32 0, i32 8
  %103 = load ptr, ptr %7, align 8
  %104 = getelementptr inbounds nuw %struct._packet_info, ptr %103, i32 0, i32 16
  %105 = call zeroext i1 @addresses_equal(ptr noundef %102, ptr noundef %104)
  br i1 %105, label %106, label %117

106:                                              ; preds = %100
  %107 = load ptr, ptr %12, align 8
  %108 = getelementptr inbounds nuw %struct._follow_info, ptr %107, i32 0, i32 6
  %109 = load i32, ptr %108, align 8
  %110 = load ptr, ptr %7, align 8
  %111 = getelementptr inbounds nuw %struct._packet_info, ptr %110, i32 0, i32 24
  %112 = load i32, ptr %111, align 4
  %113 = icmp eq i32 %109, %112
  br i1 %113, label %114, label %117

114:                                              ; preds = %106
  %115 = load ptr, ptr %11, align 8
  %116 = getelementptr inbounds nuw %struct.follow_record_t, ptr %115, i32 0, i32 0
  store i8 0, ptr %116, align 8
  br label %120

117:                                              ; preds = %106, %100
  %118 = load ptr, ptr %11, align 8
  %119 = getelementptr inbounds nuw %struct.follow_record_t, ptr %118, i32 0, i32 0
  store i8 1, ptr %119, align 8
  br label %120

120:                                              ; preds = %117, %114
  %121 = load ptr, ptr %11, align 8
  %122 = getelementptr inbounds nuw %struct.follow_record_t, ptr %121, i32 0, i32 4
  %123 = load ptr, ptr %122, align 8
  %124 = getelementptr inbounds nuw %struct._GByteArray, ptr %123, i32 0, i32 1
  %125 = load i32, ptr %124, align 8
  %126 = load ptr, ptr %12, align 8
  %127 = getelementptr inbounds nuw %struct._follow_info, ptr %126, i32 0, i32 3
  %128 = load ptr, ptr %11, align 8
  %129 = getelementptr inbounds nuw %struct.follow_record_t, ptr %128, i32 0, i32 0
  %130 = load i8, ptr %129, align 8, !range !10, !noundef !11
  %131 = trunc i8 %130 to i1
  %132 = zext i1 %131 to i64
  %133 = getelementptr [2 x i32], ptr %127, i64 0, i64 %132
  %134 = load i32, ptr %133, align 4
  %135 = add i32 %134, %125
  store i32 %135, ptr %133, align 4
  %136 = load ptr, ptr %12, align 8
  %137 = getelementptr inbounds nuw %struct._follow_info, ptr %136, i32 0, i32 2
  %138 = load ptr, ptr %137, align 8
  %139 = load ptr, ptr %11, align 8
  %140 = call ptr @g_list_prepend(ptr noundef %138, ptr noundef %139)
  %141 = load ptr, ptr %12, align 8
  %142 = getelementptr inbounds nuw %struct._follow_info, ptr %141, i32 0, i32 2
  store ptr %140, ptr %142, align 8
  call void @llvm.lifetime.end.p0(i64 8, ptr %13) #14
  call void @llvm.lifetime.end.p0(i64 8, ptr %12) #14
  call void @llvm.lifetime.end.p0(i64 8, ptr %11) #14
  ret i32 0
}