; Function Attrs: null_pointer_is_valid sspstrong uwtable
define noundef i32 @follow_tvb_tap_listener(ptr noundef captures(none) %0, ptr noundef readonly captures(none) %1, ptr noundef readnone captures(none) %2, ptr noundef %3, i32 noundef %4) local_unnamed_addr #0 {
  %6 = tail call noalias dereferenceable_or_null(40) ptr @g_malloc(i64 noundef 40) #12
  %7 = tail call i32 @tvb_captured_length(ptr noundef %3)
  %8 = tail call ptr @g_byte_array_sized_new(i32 noundef %7)
  %9 = getelementptr inbounds nuw i8, ptr %6, i64 32
  store ptr %8, ptr %9, align 8
  %10 = tail call ptr @tvb_get_ptr(ptr noundef %3, i32 noundef 0, i32 noundef -1)
  %11 = tail call i32 @tvb_captured_length(ptr noundef %3)
  %12 = tail call ptr @g_byte_array_append(ptr noundef %8, ptr noundef %10, i32 noundef %11)
  store ptr %12, ptr %9, align 8
  %13 = getelementptr inbounds nuw i8, ptr %1, i64 80
  %14 = load ptr, ptr %13, align 8
  %15 = load i32, ptr %14, align 8
  %16 = getelementptr inbounds nuw i8, ptr %6, i64 4
  store i32 %15, ptr %16, align 4
  %17 = getelementptr inbounds nuw i8, ptr %6, i64 16
  %18 = getelementptr inbounds nuw i8, ptr %14, i64 64
  tail call void @llvm.memcpy.p0.p0.i64(ptr noundef nonnull align 8 dereferenceable(16) %17, ptr noundef nonnull align 8 dereferenceable(16) %18, i64 16, i1 false)
  %19 = getelementptr inbounds nuw i8, ptr %0, i64 56
  %20 = load i32, ptr %19, align 8
  %21 = icmp eq i32 %20, 0
  br i1 %21, label %22, label %copy_address.exit44

22:                                               ; preds = %5
  %23 = getelementptr inbounds nuw i8, ptr %1, i64 284
  %24 = load i32, ptr %23, align 4
  store i32 %24, ptr %19, align 8
  %25 = getelementptr inbounds nuw i8, ptr %0, i64 64
  %26 = getelementptr inbounds nuw i8, ptr %1, i64 208
  %27 = load i32, ptr %26, align 8
  %28 = getelementptr inbounds nuw i8, ptr %1, i64 212
  %29 = load i32, ptr %28, align 4
  %30 = getelementptr inbounds nuw i8, ptr %1, i64 216
  %31 = load ptr, ptr %30, align 8
  tail call void @llvm.memset.p0.i64(ptr noundef nonnull align 8 dereferenceable(24) %25, i8 0, i64 24, i1 false)
  store i32 %27, ptr %25, align 8
  %32 = icmp eq i32 %29, 0
  br i1 %32, label %copy_address.exit, label %33

33:                                               ; preds = %22
  %34 = sext i32 %29 to i64
  %35 = tail call ptr @wmem_memdup(ptr noundef null, ptr noundef %31, i64 noundef %34) #13
  %36 = getelementptr inbounds nuw i8, ptr %0, i64 80
  store ptr %35, ptr %36, align 8
  %37 = getelementptr inbounds nuw i8, ptr %0, i64 72
  store ptr %35, ptr %37, align 8
  %38 = getelementptr inbounds nuw i8, ptr %0, i64 68
  store i32 %29, ptr %38, align 4
  br label %copy_address.exit

copy_address.exit:                                ; preds = %22, %33
  %39 = getelementptr inbounds nuw i8, ptr %1, i64 288
  %40 = load i32, ptr %39, align 8
  %41 = getelementptr inbounds nuw i8, ptr %0, i64 60
  store i32 %40, ptr %41, align 4
  %42 = getelementptr inbounds nuw i8, ptr %0, i64 88
  %43 = getelementptr inbounds nuw i8, ptr %1, i64 232
  %44 = load i32, ptr %43, align 8
  %45 = getelementptr inbounds nuw i8, ptr %1, i64 236
  %46 = load i32, ptr %45, align 4
  %47 = getelementptr inbounds nuw i8, ptr %1, i64 240
  %48 = load ptr, ptr %47, align 8
  tail call void @llvm.memset.p0.i64(ptr noundef nonnull align 8 dereferenceable(24) %42, i8 0, i64 24, i1 false)
  store i32 %44, ptr %42, align 8
  %49 = icmp eq i32 %46, 0
  br i1 %49, label %copy_address.exit44, label %50

50:                                               ; preds = %copy_address.exit
  %51 = sext i32 %46 to i64
  %52 = tail call ptr @wmem_memdup(ptr noundef null, ptr noundef %48, i64 noundef %51) #13
  %53 = getelementptr inbounds nuw i8, ptr %0, i64 104
  store ptr %52, ptr %53, align 8
  %54 = getelementptr inbounds nuw i8, ptr %0, i64 96
  store ptr %52, ptr %54, align 8
  %55 = getelementptr inbounds nuw i8, ptr %0, i64 92
  store i32 %46, ptr %55, align 4
  br label %copy_address.exit44

copy_address.exit44:                              ; preds = %50, %copy_address.exit, %5
  %56 = getelementptr inbounds nuw i8, ptr %0, i64 64
  %57 = getelementptr inbounds nuw i8, ptr %1, i64 208
  %58 = load i32, ptr %56, align 8
  %59 = load i32, ptr %57, align 8
  %60 = icmp eq i32 %58, %59
  br i1 %60, label %61, label %addresses_equal.exit

61:                                               ; preds = %copy_address.exit44
  %62 = getelementptr inbounds nuw i8, ptr %0, i64 68
  %63 = load i32, ptr %62, align 4
  %64 = getelementptr inbounds nuw i8, ptr %1, i64 212
  %65 = load i32, ptr %64, align 4
  %66 = icmp eq i32 %63, %65
  br i1 %66, label %67, label %addresses_equal.exit

67:                                               ; preds = %61
  %68 = icmp eq i32 %63, 0
  br i1 %68, label %76, label %69

69:                                               ; preds = %67
  %70 = getelementptr inbounds nuw i8, ptr %0, i64 72
  %71 = load ptr, ptr %70, align 8
  %72 = getelementptr inbounds nuw i8, ptr %1, i64 216
  %73 = load ptr, ptr %72, align 8
  %74 = sext i32 %63 to i64
  %bcmp.i = tail call i32 @bcmp(ptr %71, ptr %73, i64 %74)
  %75 = icmp eq i32 %bcmp.i, 0
  br i1 %75, label %76, label %addresses_equal.exit

76:                                               ; preds = %69, %67
  %77 = load i32, ptr %19, align 8
  %78 = getelementptr inbounds nuw i8, ptr %1, i64 284
  %79 = load i32, ptr %78, align 4
  %80 = icmp eq i32 %77, %79
  br i1 %80, label %81, label %addresses_equal.exit

addresses_equal.exit:                             ; preds = %69, %61, %copy_address.exit44, %76
  br label %81

81:                                               ; preds = %76, %addresses_equal.exit
  %storemerge = phi i8 [ 1, %addresses_equal.exit ], [ 0, %76 ]
  store i8 %storemerge, ptr %6, align 8
  %82 = load ptr, ptr %9, align 8
  %83 = getelementptr inbounds nuw i8, ptr %82, i64 8
  %84 = load i32, ptr %83, align 8
  %85 = getelementptr inbounds nuw i8, ptr %0, i64 24
  %86 = zext nneg i8 %storemerge to i64
  %87 = getelementptr [2 x i32], ptr %85, i64 0, i64 %86
  %88 = load i32, ptr %87, align 4
  %89 = add i32 %88, %84
  store i32 %89, ptr %87, align 4
  %90 = getelementptr inbounds nuw i8, ptr %0, i64 16
  %91 = load ptr, ptr %90, align 8
  %92 = tail call ptr @g_list_prepend(ptr noundef %91, ptr noundef %6)
  store ptr %92, ptr %90, align 8
  ret i32 0
}